Certificate:
    Data:
        Version: 3 (0x2)
        Serial Number:
            d8:d3:e3:a6:cb:e3:cd:75
        Signature Algorithm: sha256WithRSAEncryption
        Issuer: C=FI, L=Tuusula, O=w1.fi, CN=Root CA
        Validity
            Not Before: Jan  1 00:00:00 2020 GMT
            Not After : Jan  2 00:00:00 2020 GMT
        Subject: C=FI, O=w1.fi, CN=server4.w1.fi
        Subject Public Key Info:
            Public Key Algorithm: rsaEncryption
                RSA Public-Key: (2048 bit)
                Modulus:
                    00:b0:77:f1:3e:66:e7:fc:0b:51:f9:d8:a3:ae:2f:
                    f6:4a:75:38:3e:d4:47:7b:d6:24:32:b4:c8:d9:e0:
                    d0:a5:12:f4:89:a7:89:01:d9:54:43:ce:81:4a:bd:
                    ed:16:f3:7c:c1:67:36:8b:73:4d:21:91:e7:4b:7e:
                    74:c5:3b:15:b8:c6:46:7e:a9:a2:91:c3:f5:90:b3:
                    cf:f9:0c:eb:ba:6f:ee:b9:ab:77:3d:03:9e:9d:77:
                    07:bf:97:6a:d4:4d:b6:da:fd:36:54:25:e3:09:26:
                    89:7f:a1:11:c1:f6:dc:be:5c:57:a8:e6:45:57:3d:
                    98:14:06:72:ac:e9:c8:81:06:38:9c:cf:cd:0a:0e:
                    78:4e:9e:7b:10:c2:61:a5:43:ef:34:16:df:3c:e0:
                    a3:44:77:48:cd:be:e4:79:cb:31:39:9f:53:dd:a3:
                    0e:76:5a:6c:24:5e:56:35:9b:a2:7d:b3:9e:42:f1:
                    61:9c:e8:9e:1c:b8:9a:10:1e:32:29:21:cb:30:16:
                    e0:03:11:f9:88:f2:8f:04:a5:e6:a7:9c:73:e1:93:
                    d8:51:2d:bb:45:83:8f:b6:93:41:39:41:84:5f:4b:
                    ad:00:25:91:3d:16:0a:eb:f0:b8:92:e0:5c:75:65:
                    85:17:d2:80:e6:5e:66:a2:a4:df:c7:08:76:33:49:
                    cf:1d
                Exponent: 65537 (0x10001)
        X509v3 extensions:
            X509v3 Basic Constraints: 
                CA:FALSE
            X509v3 Subject Key Identifier: 
                21:B0:31:C6:14:D4:BD:5C:DF:70:24:51:34:9E:93:F5:18:B3:1C:A1
            X509v3 Authority Key Identifier: 
                keyid:A4:FD:B9:39:1B:81:B3:AA:EB:88:1D:D4:81:A9:B5:11:70:CC:A7:E1

            Authority Information Access: 
                OCSP - URI:http://server.w1.fi:8888/

            X509v3 Extended Key Usage: 
                TLS Web Server Authentication
    Signature Algorithm: sha256WithRSAEncryption
         89:3b:61:33:f0:6a:15:a7:b4:67:f4:43:f7:17:33:d3:de:6b:
         38:6e:b6:37:ec:47:55:ff:e0:92:15:32:01:76:d9:12:a2:5a:
         90:dd:03:1c:6b:a0:2b:ca:b1:bf:47:a0:26:54:a4:8c:6c:d3:
         d6:a6:59:25:e7:20:80:40:67:40:d1:e2:65:ba:21:77:f2:7e:
         c5:15:d2:b5:8c:ca:7f:c5:80:56:02:a5:26:eb:88:5c:0a:ad:
         5d:26:0d:30:a2:c0:83:1a:e7:12:0f:2b:21:1b:d9:37:47:ae:
         f6:a4:74:ac:e5:ee:92:d4:48:bc:3a:be:22:e3:34:c5:19:b6:
         e6:cc:8f:29:bd:0b:dd:06:3e:fa:dd:e1:5f:d5:d5:c3:fe:2b:
         d5:cf:86:e9:e3:92:8c:a0:53:82:e1:22:db:4d:6f:37:f4:61:
         5b:b7:20:19:9c:c3:cd:ef:b4:b2:5e:fa:05:7d:3e:b7:0c:88:
         51:f2:e1:85:23:0b:73:85:dd:2c:44:cb:f8:49:3c:4a:9b:a9:
         14:89:34:06:bd:13:e5:a3:01:27:ae:2f:1d:0e:57:10:db:13:
         32:ee:bd:a2:4c:26:7b:dd:51:37:13:8f:6c:1f:ea:64:92:0f:
         35:58:91:d9:dc:2c:7f:b6:bd:8d:6c:34:4e:8d:27:de:2c:ff:
         6b:a2:ed:cc
-----BEGIN CERTIFICATE-----
MIIDlDCCAnygAwIBAgIJANjT46bL4811MA0GCSqGSIb3DQEBCwUAMEExCzAJBgNV
BAYTAkZJMRAwDgYDVQQHDAdUdXVzdWxhMQ4wDAYDVQQKDAV3MS5maTEQMA4GA1UE
AwwHUm9vdCBDQTAeFw0yMDAxMDEwMDAwMDBaFw0yMDAxMDIwMDAwMDBaMDUxCzAJ
BgNVBAYTAkZJMQ4wDAYDVQQKDAV3MS5maTEWMBQGA1UEAwwNc2VydmVyNC53MS5m
aTCCASIwDQYJKoZIhvcNAQEBBQADggEPADCCAQoCggEBALB38T5m5/wLUfnYo64v
9kp1OD7UR3vWJDK0yNng0KUS9ImniQHZVEPOgUq97RbzfMFnNotzTSGR50t+dMU7
FbjGRn6popHD9ZCzz/kM67pv7rmrdz0Dnp13B7+XatRNttr9NlQl4wkmiX+hEcH2
3L5cV6jmRVc9mBQGcqzpyIEGOJzPzQoOeE6eexDCYaVD7zQW3zzgo0R3SM2+5HnL
MTmfU92jDnZabCReVjWbon2znkLxYZzonhy4mhAeMikhyzAW4AMR+YjyjwSl5qec
c+GT2FEtu0WDj7aTQTlBhF9LrQAlkT0WCuvwuJLgXHVlhRfSgOZeZqKk38cIdjNJ
zx0CAwEAAaOBmjCBlzAJBgNVHRMEAjAAMB0GA1UdDgQWBBQhsDHGFNS9XN9wJFE0
npP1GLMcoTAfBgNVHSMEGDAWgBSk/bk5G4GzquuIHdSBqbURcMyn4TA1BggrBgEF
BQcBAQQpMCcwJQYIKwYBBQUHMAGGGWh0dHA6Ly9zZXJ2ZXIudzEuZmk6ODg4OC8w
EwYDVR0lBAwwCgYIKwYBBQUHAwEwDQYJKoZIhvcNAQELBQADggEBAIk7YTPwahWn
tGf0Q/cXM9PeazhutjfsR1X/4JIVMgF22RKiWpDdAxxroCvKsb9HoCZUpIxs09am
WSXnIIBAZ0DR4mW6IXfyfsUV0rWMyn/FgFYCpSbriFwKrV0mDTCiwIMa5xIPKyEb
2TdHrvakdKzl7pLUSLw6viLjNMUZtubMjym9C90GPvrd4V/V1cP+K9XPhunjkoyg
U4LhIttNbzf0YVu3IBmcw83vtLJe+gV9PrcMiFHy4YUjC3OF3SxEy/hJPEqbqRSJ
NAa9E+WjASeuLx0OVxDbEzLuvaJMJnvdUTcTj2wf6mSSDzVYkdncLH+2vY1sNE6N
J94s/2ui7cw=
-----END CERTIFICATE-----
