Certificate:
    Data:
        Version: 3 (0x2)
        Serial Number:
            d8:d3:e3:a6:cb:e3:cd:74
        Signature Algorithm: sha256WithRSAEncryption
        Issuer: C=FI, L=Tuusula, O=w1.fi, CN=Root CA
        Validity
            Not Before: Apr 16 10:19:38 2022 GMT
            Not After : Apr 16 10:19:38 2023 GMT
        Subject: C=FI, O=w1.fi, CN=server3.w1.fi
        Subject Public Key Info:
            Public Key Algorithm: rsaEncryption
                RSA Public-Key: (2048 bit)
                Modulus:
                    00:c2:eb:ad:04:6f:4c:eb:23:b8:92:4e:75:dc:00:
                    d0:0d:d9:ad:09:21:f8:12:4a:2d:cd:db:7d:63:a1:
                    32:12:8e:b8:e3:bd:df:95:39:3a:17:65:54:f8:20:
                    d6:71:37:7d:b7:b4:72:31:7a:7a:3d:ba:74:72:f3:
                    ac:9d:16:38:35:1b:7d:50:3b:ad:96:5d:a7:c0:76:
                    0b:bb:4c:06:a8:d0:f7:2d:3d:94:a5:14:26:1a:11:
                    d8:42:1b:2d:4e:6e:60:9d:6a:cf:22:db:36:65:e2:
                    17:35:bc:69:2e:ab:30:e5:cd:fc:9a:e4:4f:0f:d1:
                    01:c3:e6:33:71:31:cd:6f:da:8c:21:9d:f7:1b:d1:
                    ed:7e:39:7a:fd:69:a3:88:1c:e6:f6:d3:3b:1a:1e:
                    d3:70:c3:ad:35:2a:22:a4:de:60:90:37:5d:e7:e0:
                    ce:9b:7d:4c:b5:cb:41:1b:9c:96:51:df:58:4d:b7:
                    67:da:95:25:60:8a:ff:6c:62:84:da:d6:24:b9:65:
                    d9:7a:59:f8:c8:bd:03:be:f6:17:d8:0e:86:ae:9a:
                    4c:7d:53:f6:b1:0e:82:cd:06:61:77:dd:46:5c:fd:
                    45:6a:f2:e8:22:ca:63:8b:d3:1c:f6:4f:10:ec:ea:
                    1a:08:1e:38:3d:80:6c:a3:48:47:f2:16:2a:07:5b:
                    f7:89
                Exponent: 65537 (0x10001)
        X509v3 extensions:
            X509v3 Basic Constraints: 
                CA:FALSE
            X509v3 Subject Key Identifier: 
                5E:84:D6:31:98:17:71:F8:63:5C:32:5B:7D:33:C0:D4:FA:36:A7:6A
            X509v3 Authority Key Identifier: 
                keyid:A4:FD:B9:39:1B:81:B3:AA:EB:88:1D:D4:81:A9:B5:11:70:CC:A7:E1

            Authority Information Access: 
                OCSP - URI:http://server.w1.fi:8888/

            X509v3 Extended Key Usage: 
                TLS Web Server Authentication
    Signature Algorithm: sha256WithRSAEncryption
         4b:65:c3:76:95:3f:54:74:56:3d:a9:0a:5c:d5:2a:20:e0:f6:
         01:0e:19:b6:0a:53:5d:01:05:5a:a4:f6:7d:fe:dc:1b:0b:2c:
         da:68:ee:7a:57:bf:16:d9:ab:d3:de:66:3d:4e:a5:08:d9:b8:
         36:4e:ec:f9:f3:f3:40:c5:16:b3:b8:9b:d4:4e:ff:cd:8f:3e:
         b2:22:cb:22:18:59:51:7a:0a:86:0e:28:89:bb:82:95:b8:8c:
         93:8e:c0:9b:28:2c:30:01:7c:5a:d8:39:e4:b7:dd:3c:dc:f3:
         87:6e:58:22:fd:d3:29:ce:b8:96:bb:80:dd:20:8b:35:b3:3f:
         d0:ef:e5:62:41:2e:b9:b5:85:4a:37:5e:21:bb:48:56:7f:b9:
         8b:a1:35:96:40:5c:89:46:9b:04:0b:1c:75:9c:b5:50:66:c5:
         70:69:1f:3d:3a:c9:3c:1d:53:68:68:db:29:c4:24:57:54:6f:
         fc:2b:9f:60:88:29:25:b2:5e:75:c0:d9:d1:8c:34:80:a2:61:
         b4:cc:ae:7c:00:c5:35:ce:28:8c:b8:b8:01:80:85:99:97:f2:
         36:4c:74:a7:bc:eb:51:78:b9:cf:7b:28:b0:fb:67:4c:14:20:
         99:3c:99:fb:31:28:ad:07:cc:7a:1c:34:2b:cf:34:ea:65:a7:
         77:1d:2b:b4
-----BEGIN CERTIFICATE-----
MIIDlDCCAnygAwIBAgIJANjT46bL4810MA0GCSqGSIb3DQEBCwUAMEExCzAJBgNV
BAYTAkZJMRAwDgYDVQQHDAdUdXVzdWxhMQ4wDAYDVQQKDAV3MS5maTEQMA4GA1UE
AwwHUm9vdCBDQTAeFw0yMjA0MTYxMDE5MzhaFw0yMzA0MTYxMDE5MzhaMDUxCzAJ
BgNVBAYTAkZJMQ4wDAYDVQQKDAV3MS5maTEWMBQGA1UEAwwNc2VydmVyMy53MS5m
aTCCASIwDQYJKoZIhvcNAQEBBQADggEPADCCAQoCggEBAMLrrQRvTOsjuJJOddwA
0A3ZrQkh+BJKLc3bfWOhMhKOuOO935U5OhdlVPgg1nE3fbe0cjF6ej26dHLzrJ0W
ODUbfVA7rZZdp8B2C7tMBqjQ9y09lKUUJhoR2EIbLU5uYJ1qzyLbNmXiFzW8aS6r
MOXN/JrkTw/RAcPmM3ExzW/ajCGd9xvR7X45ev1po4gc5vbTOxoe03DDrTUqIqTe
YJA3Xefgzpt9TLXLQRucllHfWE23Z9qVJWCK/2xihNrWJLll2XpZ+Mi9A772F9gO
hq6aTH1T9rEOgs0GYXfdRlz9RWry6CLKY4vTHPZPEOzqGggeOD2AbKNIR/IWKgdb
94kCAwEAAaOBmjCBlzAJBgNVHRMEAjAAMB0GA1UdDgQWBBRehNYxmBdx+GNcMlt9
M8DU+janajAfBgNVHSMEGDAWgBSk/bk5G4GzquuIHdSBqbURcMyn4TA1BggrBgEF
BQcBAQQpMCcwJQYIKwYBBQUHMAGGGWh0dHA6Ly9zZXJ2ZXIudzEuZmk6ODg4OC8w
EwYDVR0lBAwwCgYIKwYBBQUHAwEwDQYJKoZIhvcNAQELBQADggEBAEtlw3aVP1R0
Vj2pClzVKiDg9gEOGbYKU10BBVqk9n3+3BsLLNpo7npXvxbZq9PeZj1OpQjZuDZO
7Pnz80DFFrO4m9RO/82PPrIiyyIYWVF6CoYOKIm7gpW4jJOOwJsoLDABfFrYOeS3
3Tzc84duWCL90ynOuJa7gN0gizWzP9Dv5WJBLrm1hUo3XiG7SFZ/uYuhNZZAXIlG
mwQLHHWctVBmxXBpHz06yTwdU2ho2ynEJFdUb/wrn2CIKSWyXnXA2dGMNICiYbTM
rnwAxTXOKIy4uAGAhZmX8jZMdKe861F4uc97KLD7Z0wUIJk8mfsxKK0HzHocNCvP
NOplp3cdK7Q=
-----END CERTIFICATE-----
