Certificate:
    Data:
        Version: 3 (0x2)
        Serial Number:
            d8:d3:e3:a6:cb:e3:cd:7a
        Signature Algorithm: sha256WithRSAEncryption
        Issuer: C=FI, L=Tuusula, O=w1.fi, CN=Root CA
        Validity
            Not Before: Apr 16 10:19:38 2022 GMT
            Not After : Apr 16 10:19:38 2023 GMT
        Subject: C=FI, O=w1.fi, CN=server-policies2.w1.fi
        Subject Public Key Info:
            Public Key Algorithm: rsaEncryption
                RSA Public-Key: (3072 bit)
                Modulus:
                    00:e6:50:d1:28:05:27:6c:d4:42:d3:42:c7:cc:53:
                    a9:6b:c2:a3:ab:20:6f:17:34:9d:e4:1d:31:d0:c4:
                    68:65:42:d5:e8:bd:aa:b8:e4:e9:f6:ee:2e:75:cd:
                    6a:8c:f6:8e:aa:af:6c:7c:eb:35:50:55:b1:c2:b3:
                    f8:a7:d0:1e:a3:33:26:68:40:20:13:74:08:87:ef:
                    b6:3a:f1:7f:3e:f5:7f:93:44:74:37:8b:c3:89:a7:
                    ba:5f:42:39:4a:22:20:40:66:c6:6f:77:cf:54:3f:
                    05:61:de:ab:71:fa:9f:78:6d:97:4a:e8:60:a0:11:
                    aa:6c:ba:9d:44:65:18:e8:e0:8f:d1:df:da:95:ab:
                    41:2c:63:65:f6:42:42:e6:1f:42:a4:1c:74:20:49:
                    f4:d4:92:0e:e3:be:3b:55:fd:38:68:74:3a:e4:df:
                    9a:2b:95:bf:e9:d1:38:8b:16:24:20:35:db:b8:d0:
                    15:30:2e:2f:6a:24:b9:e1:e9:e7:b6:b5:bd:e6:0f:
                    59:dd:df:95:9c:ab:03:b4:c5:42:81:48:61:cc:3c:
                    06:17:85:63:6e:28:cb:d7:88:d1:ce:40:c7:ff:61:
                    51:ac:bb:ba:23:c9:42:a7:7d:27:0d:1e:53:90:cf:
                    22:3f:57:f5:ff:1a:05:0c:9c:7a:1b:fb:e2:47:5f:
                    45:cb:ee:88:a5:a0:54:71:83:f7:d3:d3:c5:bc:b2:
                    7e:85:a7:b1:1a:cf:91:cb:8b:39:ba:7c:2c:9d:b2:
                    c5:79:c3:e0:80:73:06:30:4f:5d:81:52:e2:bf:43:
                    55:85:5d:64:c4:97:ac:e9:2d:7e:30:b5:e1:52:50:
                    53:0c:ac:24:8e:7b:a2:57:8d:ff:b1:05:ba:23:33:
                    a6:08:a3:b4:38:42:f6:5c:d9:bc:5d:75:95:82:ff:
                    4d:9a:db:56:2f:1b:38:d2:51:05:2c:90:62:f1:8e:
                    4c:ee:ea:1b:ae:aa:53:74:85:ba:c6:c3:c2:4b:30:
                    bd:e0:2e:c8:ac:7e:25:cc:32:5f
                Exponent: 65537 (0x10001)
        X509v3 extensions:
            X509v3 Basic Constraints: 
                CA:FALSE
            X509v3 Subject Key Identifier: 
                4E:01:8B:7E:C2:77:94:E1:68:B3:C4:29:35:24:05:0B:DE:84:4A:89
            X509v3 Authority Key Identifier: 
                keyid:A4:FD:B9:39:1B:81:B3:AA:EB:88:1D:D4:81:A9:B5:11:70:CC:A7:E1

            Authority Information Access: 
                OCSP - URI:http://server.w1.fi:8888/

            X509v3 Subject Alternative Name: 
                DNS:server-policies2.w1.fi
            X509v3 Certificate Policies: 
                Policy: 1.3.6.1.4.1.40808.1.3.2

            X509v3 Extended Key Usage: 
                TLS Web Server Authentication
    Signature Algorithm: sha256WithRSAEncryption
         27:09:c0:49:ae:d3:96:f9:64:70:4b:04:16:ce:d0:8c:5f:93:
         e5:9b:7c:d9:58:38:28:83:fa:f9:75:67:2a:9d:8d:7f:b6:b8:
         61:f5:d7:17:a1:b2:aa:ab:11:79:b2:65:93:40:1b:cf:32:76:
         50:26:72:d1:98:c8:4f:24:d9:8a:49:c6:43:eb:83:a0:4b:8d:
         05:56:55:5a:99:3b:63:c1:98:ea:9e:e6:19:0f:d4:1d:e2:03:
         78:c2:9e:53:a5:67:6a:7e:2a:b4:3e:18:fa:27:a6:f5:74:bd:
         5e:ed:74:46:35:07:a0:46:97:45:3e:1e:98:ef:c0:5d:5d:63:
         96:9f:dc:6c:34:e1:73:83:4a:cd:1b:da:dd:81:d9:ec:2b:68:
         e6:21:fe:af:c9:08:2b:4d:f7:aa:88:11:4b:64:bf:95:c4:72:
         1b:89:2b:9f:d6:bb:bd:9b:a8:79:28:ec:d3:4d:34:c0:ce:9f:
         9f:24:d7:ac:4f:8f:85:2c:b1:79:7b:d2:86:56:3c:48:6a:fb:
         c1:4a:74:13:b7:60:27:f6:d2:34:72:f9:3a:ba:56:6e:bc:7f:
         f3:9c:32:08:de:ef:4d:d7:22:05:5d:5b:73:36:48:35:b4:5d:
         82:f0:85:13:c9:89:ba:a6:7b:24:8e:5f:b7:a7:f4:37:85:f5:
         bc:ca:21:7c
-----BEGIN CERTIFICATE-----
MIIEWjCCA0KgAwIBAgIJANjT46bL4816MA0GCSqGSIb3DQEBCwUAMEExCzAJBgNV
BAYTAkZJMRAwDgYDVQQHDAdUdXVzdWxhMQ4wDAYDVQQKDAV3MS5maTEQMA4GA1UE
AwwHUm9vdCBDQTAeFw0yMjA0MTYxMDE5MzhaFw0yMzA0MTYxMDE5MzhaMD4xCzAJ
BgNVBAYTAkZJMQ4wDAYDVQQKDAV3MS5maTEfMB0GA1UEAwwWc2VydmVyLXBvbGlj
aWVzMi53MS5maTCCAaIwDQYJKoZIhvcNAQEBBQADggGPADCCAYoCggGBAOZQ0SgF
J2zUQtNCx8xTqWvCo6sgbxc0neQdMdDEaGVC1ei9qrjk6fbuLnXNaoz2jqqvbHzr
NVBVscKz+KfQHqMzJmhAIBN0CIfvtjrxfz71f5NEdDeLw4mnul9COUoiIEBmxm93
z1Q/BWHeq3H6n3htl0roYKARqmy6nURlGOjgj9Hf2pWrQSxjZfZCQuYfQqQcdCBJ
9NSSDuO+O1X9OGh0OuTfmiuVv+nROIsWJCA127jQFTAuL2okueHp57a1veYPWd3f
lZyrA7TFQoFIYcw8BheFY24oy9eI0c5Ax/9hUay7uiPJQqd9Jw0eU5DPIj9X9f8a
BQycehv74kdfRcvuiKWgVHGD99PTxbyyfoWnsRrPkcuLObp8LJ2yxXnD4IBzBjBP
XYFS4r9DVYVdZMSXrOktfjC14VJQUwysJI57oleN/7EFuiMzpgijtDhC9lzZvF11
lYL/TZrbVi8bONJRBSyQYvGOTO7qG66qU3SFusbDwkswveAuyKx+JcwyXwIDAQAB
o4HXMIHUMAkGA1UdEwQCMAAwHQYDVR0OBBYEFE4Bi37Cd5ThaLPEKTUkBQvehEqJ
MB8GA1UdIwQYMBaAFKT9uTkbgbOq64gd1IGptRFwzKfhMDUGCCsGAQUFBwEBBCkw
JzAlBggrBgEFBQcwAYYZaHR0cDovL3NlcnZlci53MS5maTo4ODg4LzAhBgNVHREE
GjAYghZzZXJ2ZXItcG9saWNpZXMyLncxLmZpMBgGA1UdIAQRMA8wDQYLKwYBBAGC
vmgBAwIwEwYDVR0lBAwwCgYIKwYBBQUHAwEwDQYJKoZIhvcNAQELBQADggEBACcJ
wEmu05b5ZHBLBBbO0Ixfk+WbfNlYOCiD+vl1ZyqdjX+2uGH11xehsqqrEXmyZZNA
G88ydlAmctGYyE8k2YpJxkPrg6BLjQVWVVqZO2PBmOqe5hkP1B3iA3jCnlOlZ2p+
KrQ+GPonpvV0vV7tdEY1B6BGl0U+HpjvwF1dY5af3Gw04XODSs0b2t2B2ewraOYh
/q/JCCtN96qIEUtkv5XEchuJK5/Wu72bqHko7NNNNMDOn58k16xPj4UssXl70oZW
PEhq+8FKdBO3YCf20jRy+Tq6Vm68f/OcMgje703XIgVdW3M2SDW0XYLwhRPJibqm
eySOX7en9DeF9bzKIXw=
-----END CERTIFICATE-----
