Certificate:
    Data:
        Version: 3 (0x2)
        Serial Number:
            d8:d3:e3:a6:cb:e3:cd:77
        Signature Algorithm: sha256WithRSAEncryption
        Issuer: C=FI, L=Tuusula, O=w1.fi, CN=Root CA
        Validity
            Not Before: Apr 16 10:19:38 2022 GMT
            Not After : Apr 16 10:19:38 2023 GMT
        Subject: C=FI, O=w1.fi, CN=server6.w1.fi
        Subject Public Key Info:
            Public Key Algorithm: rsaEncryption
                RSA Public-Key: (2048 bit)
                Modulus:
                    00:d0:23:f4:80:12:be:4a:64:4d:af:99:af:52:ef:
                    8d:f5:73:9a:1a:28:2b:92:e8:d4:90:25:3e:85:47:
                    9f:c9:c4:b9:7a:35:24:84:2f:1e:51:16:66:d3:ac:
                    31:ea:f1:63:a4:4c:ea:26:f0:fa:61:c7:9f:f2:74:
                    69:6a:78:09:c5:c9:89:74:db:6d:ba:c7:b6:b1:f0:
                    61:1f:ef:3a:1c:d5:c6:fc:95:5d:9b:37:d6:5b:cb:
                    37:93:59:ed:50:f2:6a:a2:01:5c:9e:22:af:3a:31:
                    d9:ee:eb:33:49:93:4e:46:ee:9d:7b:86:86:da:2b:
                    1d:f9:f3:a2:01:7d:0d:55:1c:3b:67:e9:c9:fb:bc:
                    a9:52:4c:4a:21:85:68:50:2f:e4:05:c1:3f:e0:b3:
                    a3:25:d4:6c:2e:61:7c:9d:d5:da:93:bb:19:fe:ea:
                    bf:f2:c8:f9:dc:de:48:54:e1:fe:d4:b5:94:5a:3f:
                    2c:2b:8c:b1:6c:ef:3a:b0:d2:0c:2c:13:75:61:db:
                    97:6b:fa:6b:f9:9d:f7:14:aa:35:72:d8:4c:0b:a1:
                    5c:08:c5:87:d4:e4:87:1d:6b:0a:50:1f:b5:0e:3f:
                    bb:36:8b:c6:e0:bd:1e:1a:e1:1c:f3:37:a4:91:65:
                    4c:43:b4:9e:cc:1b:61:68:09:bd:1e:ab:61:bd:c1:
                    91:71
                Exponent: 65537 (0x10001)
        X509v3 extensions:
            X509v3 Basic Constraints: 
                CA:FALSE
            X509v3 Subject Key Identifier: 
                AB:D2:88:CA:9C:44:26:89:2E:C0:B9:8D:46:DD:5C:69:02:9E:01:CB
            X509v3 Authority Key Identifier: 
                keyid:A4:FD:B9:39:1B:81:B3:AA:EB:88:1D:D4:81:A9:B5:11:70:CC:A7:E1

            Authority Information Access: 
                OCSP - URI:http://server.w1.fi:8888/

            X509v3 Extended Key Usage: 
                TLS Web Client Authentication, TLS Web Server Authentication
    Signature Algorithm: sha256WithRSAEncryption
         2c:27:7c:89:6c:db:0d:4a:42:e7:83:6e:f5:f8:5b:43:79:80:
         c2:d1:ac:ba:4e:7d:6a:e9:21:1e:61:71:e0:ce:d4:b6:c0:9d:
         84:50:37:f3:06:05:1f:28:c1:03:59:7e:06:68:24:21:af:ee:
         7b:81:f5:d7:8b:33:1f:3d:1e:b2:7c:c0:94:c1:49:e8:79:e0:
         ae:f3:f4:fa:e7:e6:7f:3a:b0:7f:49:41:25:70:73:73:30:17:
         57:aa:37:4e:d3:f2:06:26:62:b3:c4:3b:7a:23:87:f2:28:cb:
         8f:cc:9f:dd:97:f7:0c:d6:26:59:67:8c:16:a5:05:94:dc:a1:
         42:87:f2:49:69:70:e9:db:b4:13:a9:85:81:64:2a:96:41:8a:
         d6:2b:34:49:0a:18:2e:26:31:7f:c9:e8:02:18:ce:c4:2f:0e:
         b0:bd:d3:41:0b:8c:d2:de:cf:2f:b7:e5:ff:b3:d5:22:05:46:
         0d:7f:19:4f:45:fb:64:7e:68:9c:e8:4b:a4:e3:33:4b:b6:59:
         5e:c2:e9:e3:0f:20:a6:8e:88:47:a4:70:3d:f1:8e:34:51:43:
         df:52:55:42:6e:96:40:6b:22:d2:7d:22:93:9c:1a:1a:7a:23:
         e4:6f:be:13:99:07:af:08:6a:23:f8:3b:62:4c:2f:19:b5:aa:
         e7:5e:b3:62
-----BEGIN CERTIFICATE-----
MIIDnjCCAoagAwIBAgIJANjT46bL4813MA0GCSqGSIb3DQEBCwUAMEExCzAJBgNV
BAYTAkZJMRAwDgYDVQQHDAdUdXVzdWxhMQ4wDAYDVQQKDAV3MS5maTEQMA4GA1UE
AwwHUm9vdCBDQTAeFw0yMjA0MTYxMDE5MzhaFw0yMzA0MTYxMDE5MzhaMDUxCzAJ
BgNVBAYTAkZJMQ4wDAYDVQQKDAV3MS5maTEWMBQGA1UEAwwNc2VydmVyNi53MS5m
aTCCASIwDQYJKoZIhvcNAQEBBQADggEPADCCAQoCggEBANAj9IASvkpkTa+Zr1Lv
jfVzmhooK5Lo1JAlPoVHn8nEuXo1JIQvHlEWZtOsMerxY6RM6ibw+mHHn/J0aWp4
CcXJiXTbbbrHtrHwYR/vOhzVxvyVXZs31lvLN5NZ7VDyaqIBXJ4irzox2e7rM0mT
TkbunXuGhtorHfnzogF9DVUcO2fpyfu8qVJMSiGFaFAv5AXBP+CzoyXUbC5hfJ3V
2pO7Gf7qv/LI+dzeSFTh/tS1lFo/LCuMsWzvOrDSDCwTdWHbl2v6a/md9xSqNXLY
TAuhXAjFh9Tkhx1rClAftQ4/uzaLxuC9HhrhHPM3pJFlTEO0nswbYWgJvR6rYb3B
kXECAwEAAaOBpDCBoTAJBgNVHRMEAjAAMB0GA1UdDgQWBBSr0ojKnEQmiS7AuY1G
3VxpAp4ByzAfBgNVHSMEGDAWgBSk/bk5G4GzquuIHdSBqbURcMyn4TA1BggrBgEF
BQcBAQQpMCcwJQYIKwYBBQUHMAGGGWh0dHA6Ly9zZXJ2ZXIudzEuZmk6ODg4OC8w
HQYDVR0lBBYwFAYIKwYBBQUHAwIGCCsGAQUFBwMBMA0GCSqGSIb3DQEBCwUAA4IB
AQAsJ3yJbNsNSkLng271+FtDeYDC0ay6Tn1q6SEeYXHgztS2wJ2EUDfzBgUfKMED
WX4GaCQhr+57gfXXizMfPR6yfMCUwUnoeeCu8/T65+Z/OrB/SUElcHNzMBdXqjdO
0/IGJmKzxDt6I4fyKMuPzJ/dl/cM1iZZZ4wWpQWU3KFCh/JJaXDp27QTqYWBZCqW
QYrWKzRJChguJjF/yegCGM7ELw6wvdNBC4zS3s8vt+X/s9UiBUYNfxlPRftkfmic
6Euk4zNLtllewunjDyCmjohHpHA98Y40UUPfUlVCbpZAayLSfSKTnBoaeiPkb74T
mQevCGoj+DtiTC8ZtarnXrNi
-----END CERTIFICATE-----
