Certificate:
    Data:
        Version: 3 (0x2)
        Serial Number:
            d8:d3:e3:a6:cb:e3:cd:76
        Signature Algorithm: sha256WithRSAEncryption
        Issuer: C=FI, L=Tuusula, O=w1.fi, CN=Root CA
        Validity
            Not Before: Apr 16 10:19:38 2022 GMT
            Not After : Apr 16 10:19:38 2023 GMT
        Subject: C=FI, O=w1.fi, CN=server5.w1.fi
        Subject Public Key Info:
            Public Key Algorithm: rsaEncryption
                RSA Public-Key: (2048 bit)
                Modulus:
                    00:a5:94:60:80:b8:c8:61:18:8c:02:9d:dc:cc:c4:
                    74:d1:17:b5:3b:47:9c:38:0f:3b:92:74:fb:ea:27:
                    45:44:8a:9a:2a:4d:10:25:8e:77:ce:1a:09:c9:73:
                    19:fe:dc:70:36:5e:8c:fa:8f:4c:84:bb:f7:72:e4:
                    94:4f:fc:47:2a:7d:89:92:a3:2b:5a:69:9c:c8:5a:
                    10:39:32:61:7d:0a:78:19:b4:36:eb:ac:4c:d6:af:
                    75:00:14:4e:15:2f:5f:83:ee:62:f5:ac:7b:0c:81:
                    ba:a2:08:36:7b:f0:ef:63:31:62:fb:86:a6:cf:da:
                    36:83:44:8d:75:28:b6:e4:10:f3:32:dd:8a:6c:5b:
                    ee:4f:f1:1e:53:0b:13:7c:c7:bc:f7:9e:32:80:1e:
                    63:3e:92:75:2f:c5:21:5e:f0:2a:ac:e2:34:e4:17:
                    b2:34:f7:e8:2a:12:8a:21:b8:03:e7:b6:d8:f8:32:
                    b5:fe:71:45:52:98:de:b9:3d:41:f5:90:a5:76:83:
                    c1:18:ca:50:5d:2c:52:8b:6e:4f:a7:5b:bb:d8:e3:
                    14:25:70:de:d1:c7:9d:59:cf:24:46:c7:f5:6e:6f:
                    83:66:ed:1b:1d:3e:51:04:94:67:64:df:51:22:3c:
                    c0:e1:24:0a:37:6a:dc:6a:8b:fd:45:5b:96:2d:03:
                    ac:63
                Exponent: 65537 (0x10001)
        X509v3 extensions:
            X509v3 Basic Constraints: 
                CA:FALSE
            X509v3 Subject Key Identifier: 
                32:9F:9F:30:24:73:73:CB:8D:53:3A:80:23:EB:5B:5D:4C:DD:06:01
            X509v3 Authority Key Identifier: 
                keyid:A4:FD:B9:39:1B:81:B3:AA:EB:88:1D:D4:81:A9:B5:11:70:CC:A7:E1

            Authority Information Access: 
                OCSP - URI:http://server.w1.fi:8888/

            X509v3 Extended Key Usage: 
                TLS Web Client Authentication
    Signature Algorithm: sha256WithRSAEncryption
         bc:9a:3e:81:54:1a:2a:d9:69:6f:a6:31:ff:2d:07:ab:1d:10:
         1a:f3:92:89:75:a5:26:39:e4:ad:54:2a:36:46:cf:5a:fc:83:
         1c:b6:cf:60:23:ed:6a:c6:85:43:16:80:b8:d0:0b:27:98:d9:
         9e:2f:96:e9:80:24:74:9f:3d:04:0f:29:c3:9b:14:4d:31:5f:
         61:8c:a0:57:ee:89:3d:6d:fd:96:f0:59:3a:b2:88:22:da:85:
         00:dd:07:57:d9:c9:1f:73:ae:73:7d:d6:0e:c9:ff:14:5d:26:
         cd:e1:da:ab:03:af:8e:77:61:b8:98:f0:2e:6e:46:e6:e1:16:
         60:16:bb:ec:c5:73:43:4a:df:10:20:d6:8d:54:59:b7:29:0f:
         89:24:5e:9f:cc:e4:0d:58:c3:bb:43:4c:73:2f:d9:9c:e1:24:
         60:2a:69:28:46:d3:3d:57:f9:c1:28:70:76:a8:4b:bf:ad:95:
         ca:b7:24:3d:95:ed:5f:6e:be:04:12:89:6c:20:cd:a5:f6:55:
         53:1f:db:45:cd:9e:9e:de:51:ca:5f:d9:ac:a1:02:1c:b7:8e:
         fc:20:0e:6e:03:f1:3f:e8:c5:69:cc:e9:16:67:fc:4c:0f:c3:
         b9:03:eb:28:70:a8:2f:c7:70:8f:e4:a2:39:36:81:01:09:ad:
         43:78:03:f9
-----BEGIN CERTIFICATE-----
MIIDlDCCAnygAwIBAgIJANjT46bL4812MA0GCSqGSIb3DQEBCwUAMEExCzAJBgNV
BAYTAkZJMRAwDgYDVQQHDAdUdXVzdWxhMQ4wDAYDVQQKDAV3MS5maTEQMA4GA1UE
AwwHUm9vdCBDQTAeFw0yMjA0MTYxMDE5MzhaFw0yMzA0MTYxMDE5MzhaMDUxCzAJ
BgNVBAYTAkZJMQ4wDAYDVQQKDAV3MS5maTEWMBQGA1UEAwwNc2VydmVyNS53MS5m
aTCCASIwDQYJKoZIhvcNAQEBBQADggEPADCCAQoCggEBAKWUYIC4yGEYjAKd3MzE
dNEXtTtHnDgPO5J0++onRUSKmipNECWOd84aCclzGf7ccDZejPqPTIS793LklE/8
Ryp9iZKjK1ppnMhaEDkyYX0KeBm0NuusTNavdQAUThUvX4PuYvWsewyBuqIINnvw
72MxYvuGps/aNoNEjXUotuQQ8zLdimxb7k/xHlMLE3zHvPeeMoAeYz6SdS/FIV7w
KqziNOQXsjT36CoSiiG4A+e22Pgytf5xRVKY3rk9QfWQpXaDwRjKUF0sUotuT6db
u9jjFCVw3tHHnVnPJEbH9W5vg2btGx0+UQSUZ2TfUSI8wOEkCjdq3GqL/UVbli0D
rGMCAwEAAaOBmjCBlzAJBgNVHRMEAjAAMB0GA1UdDgQWBBQyn58wJHNzy41TOoAj
61tdTN0GATAfBgNVHSMEGDAWgBSk/bk5G4GzquuIHdSBqbURcMyn4TA1BggrBgEF
BQcBAQQpMCcwJQYIKwYBBQUHMAGGGWh0dHA6Ly9zZXJ2ZXIudzEuZmk6ODg4OC8w
EwYDVR0lBAwwCgYIKwYBBQUHAwIwDQYJKoZIhvcNAQELBQADggEBALyaPoFUGirZ
aW+mMf8tB6sdEBrzkol1pSY55K1UKjZGz1r8gxy2z2Aj7WrGhUMWgLjQCyeY2Z4v
lumAJHSfPQQPKcObFE0xX2GMoFfuiT1t/ZbwWTqyiCLahQDdB1fZyR9zrnN91g7J
/xRdJs3h2qsDr453YbiY8C5uRubhFmAWu+zFc0NK3xAg1o1UWbcpD4kkXp/M5A1Y
w7tDTHMv2ZzhJGAqaShG0z1X+cEocHaoS7+tlcq3JD2V7V9uvgQSiWwgzaX2VVMf
20XNnp7eUcpf2ayhAhy3jvwgDm4D8T/oxWnM6RZn/EwPw7kD6yhwqC/HcI/kojk2
gQEJrUN4A/k=
-----END CERTIFICATE-----
