Certificate:
    Data:
        Version: 3 (0x2)
        Serial Number:
            d8:d3:e3:a6:cb:e3:cd:73
        Signature Algorithm: sha256WithRSAEncryption
        Issuer: C=FI, L=Tuusula, O=w1.fi, CN=Root CA
        Validity
            Not Before: Apr 16 10:19:38 2022 GMT
            Not After : Apr 16 10:19:38 2023 GMT
        Subject: C=FI, O=w1.fi, CN=server.w1.fi
        Subject Public Key Info:
            Public Key Algorithm: rsaEncryption
                RSA Public-Key: (2048 bit)
                Modulus:
                    00:fd:0e:5e:cd:19:2c:6a:41:83:d9:2c:0e:36:cd:
                    09:b0:8f:b2:c9:8c:c8:d2:03:38:6e:54:bc:43:ee:
                    ce:f8:59:b1:e9:3f:6d:d4:5e:e3:c5:73:19:3d:0b:
                    bc:29:d7:d0:6e:75:00:35:fc:f7:65:b1:b6:0f:cb:
                    06:49:cf:a9:4e:3d:c2:64:4b:18:24:0a:70:b8:6e:
                    54:dc:90:3f:6c:18:fd:b6:88:ab:37:dc:8b:4b:b5:
                    e1:ff:ed:bb:45:05:a3:f0:aa:51:2b:f1:79:06:7f:
                    2f:cd:5d:fc:e6:8a:af:1b:b9:7b:ca:43:75:01:1d:
                    8e:2d:d9:11:13:86:fb:3c:4b:60:a4:29:49:e3:d2:
                    20:20:cb:5c:0d:9c:d2:9c:30:21:11:bc:b3:74:df:
                    64:b0:b7:67:ee:6a:df:af:3d:18:02:b7:dc:e5:54:
                    75:b5:6c:40:c4:b0:8a:1b:c6:fd:ab:1e:b9:ef:d1:
                    83:09:0d:55:ba:17:88:4e:d0:bd:cf:73:36:7c:28:
                    4b:f6:aa:48:d4:e8:fb:25:d8:1d:af:c9:68:73:ac:
                    46:ae:cb:eb:79:36:57:ad:c3:70:02:15:6d:f0:a5:
                    43:73:ab:72:04:b1:16:60:74:0e:4a:c1:8f:52:28:
                    1a:95:7e:ab:d0:04:f6:fa:11:da:1b:d1:99:a4:4f:
                    9e:ed
                Exponent: 65537 (0x10001)
        X509v3 extensions:
            X509v3 Basic Constraints: 
                CA:FALSE
            X509v3 Subject Key Identifier: 
                71:26:7A:1F:72:81:97:24:11:AA:C0:75:FA:BF:31:10:69:49:D0:E7
            X509v3 Authority Key Identifier: 
                keyid:A4:FD:B9:39:1B:81:B3:AA:EB:88:1D:D4:81:A9:B5:11:70:CC:A7:E1

            Authority Information Access: 
                OCSP - URI:http://server.w1.fi:8888/

            X509v3 Subject Alternative Name: 
                DNS:server.w1.fi
            X509v3 Extended Key Usage: 
                TLS Web Server Authentication
    Signature Algorithm: sha256WithRSAEncryption
         a3:9c:dd:1d:ab:7d:74:c8:bc:3f:4c:2e:f7:a7:04:bf:81:11:
         b2:22:d9:8f:8b:4f:8b:0e:01:bd:b4:0b:91:4b:c8:3a:b0:b1:
         1e:01:4d:eb:56:80:29:2c:5b:79:a7:06:94:60:95:03:1d:5f:
         47:d1:93:c5:9f:51:96:47:93:70:93:98:38:8c:59:6a:f0:3d:
         02:8d:2a:a3:31:98:93:a5:62:50:cc:15:3c:82:1a:ba:4e:50:
         13:68:59:f8:21:c5:80:9d:b4:da:84:d4:01:0d:90:12:29:82:
         11:ef:1d:ea:35:64:7a:65:02:8b:91:ae:f8:66:56:95:5a:bf:
         c4:56:f9:12:38:20:6b:34:d4:c7:4f:08:9a:3c:dd:e7:97:0a:
         0a:22:b3:dd:df:90:2a:a3:73:4f:39:aa:5a:ef:9a:57:28:c2:
         fb:ea:ba:0b:dc:91:33:ce:45:af:3c:9f:10:ab:ef:32:35:4a:
         b0:12:07:91:49:e8:6f:78:fd:b9:54:07:b3:d3:cd:3b:83:2f:
         10:fe:cb:71:58:92:b9:98:b9:a0:02:5a:1b:9c:1b:6d:00:dc:
         ca:08:12:20:e7:32:33:6d:2e:66:3a:8b:1a:49:ef:b7:75:78:
         d2:c1:3c:6b:63:2f:95:7c:04:25:63:bf:02:85:73:ec:d7:da:
         f3:35:36:ab
-----BEGIN CERTIFICATE-----
MIIDrDCCApSgAwIBAgIJANjT46bL481zMA0GCSqGSIb3DQEBCwUAMEExCzAJBgNV
BAYTAkZJMRAwDgYDVQQHDAdUdXVzdWxhMQ4wDAYDVQQKDAV3MS5maTEQMA4GA1UE
AwwHUm9vdCBDQTAeFw0yMjA0MTYxMDE5MzhaFw0yMzA0MTYxMDE5MzhaMDQxCzAJ
BgNVBAYTAkZJMQ4wDAYDVQQKDAV3MS5maTEVMBMGA1UEAwwMc2VydmVyLncxLmZp
MIIBIjANBgkqhkiG9w0BAQEFAAOCAQ8AMIIBCgKCAQEA/Q5ezRksakGD2SwONs0J
sI+yyYzI0gM4blS8Q+7O+Fmx6T9t1F7jxXMZPQu8KdfQbnUANfz3ZbG2D8sGSc+p
Tj3CZEsYJApwuG5U3JA/bBj9toirN9yLS7Xh/+27RQWj8KpRK/F5Bn8vzV385oqv
G7l7ykN1AR2OLdkRE4b7PEtgpClJ49IgIMtcDZzSnDAhEbyzdN9ksLdn7mrfrz0Y
Arfc5VR1tWxAxLCKG8b9qx6579GDCQ1VuheITtC9z3M2fChL9qpI1Oj7Jdgdr8lo
c6xGrsvreTZXrcNwAhVt8KVDc6tyBLEWYHQOSsGPUigalX6r0AT2+hHaG9GZpE+e
7QIDAQABo4GzMIGwMAkGA1UdEwQCMAAwHQYDVR0OBBYEFHEmeh9ygZckEarAdfq/
MRBpSdDnMB8GA1UdIwQYMBaAFKT9uTkbgbOq64gd1IGptRFwzKfhMDUGCCsGAQUF
BwEBBCkwJzAlBggrBgEFBQcwAYYZaHR0cDovL3NlcnZlci53MS5maTo4ODg4LzAX
BgNVHREEEDAOggxzZXJ2ZXIudzEuZmkwEwYDVR0lBAwwCgYIKwYBBQUHAwEwDQYJ
KoZIhvcNAQELBQADggEBAKOc3R2rfXTIvD9MLvenBL+BEbIi2Y+LT4sOAb20C5FL
yDqwsR4BTetWgCksW3mnBpRglQMdX0fRk8WfUZZHk3CTmDiMWWrwPQKNKqMxmJOl
YlDMFTyCGrpOUBNoWfghxYCdtNqE1AENkBIpghHvHeo1ZHplAouRrvhmVpVav8RW
+RI4IGs01MdPCJo83eeXCgois93fkCqjc085qlrvmlcowvvqugvckTPORa88nxCr
7zI1SrASB5FJ6G94/blUB7PTzTuDLxD+y3FYkrmYuaACWhucG20A3MoIEiDnMjNt
LmY6ixpJ77d1eNLBPGtjL5V8BCVjvwKFc+zX2vM1Nqs=
-----END CERTIFICATE-----
