Certificate:
    Data:
        Version: 3 (0x2)
        Serial Number:
            d8:d3:e3:a6:cb:e3:cd:78
        Signature Algorithm: sha256WithRSAEncryption
        Issuer: C=FI, L=Tuusula, O=w1.fi, CN=Root CA
        Validity
            Not Before: Apr 16 10:19:38 2022 GMT
            Not After : Apr  3 10:19:38 2072 GMT
        Subject: C=FI, O=w1.fi, CN=server7.w1.fi
        Subject Public Key Info:
            Public Key Algorithm: rsaEncryption
                RSA Public-Key: (4096 bit)
                Modulus:
                    00:bf:10:c2:eb:bf:bd:0f:21:68:44:26:78:d6:90:
                    0f:de:9c:67:78:07:6f:2e:34:e1:51:a6:34:6e:1d:
                    4f:f1:1f:1a:b7:93:7a:1a:01:36:04:d4:e3:35:f0:
                    9b:52:8d:cc:2d:80:93:68:37:00:09:5f:e1:0d:8a:
                    35:74:f5:ee:1e:16:69:93:16:47:aa:93:ca:68:a7:
                    39:6d:b5:db:57:3d:45:63:89:38:9e:3e:57:39:d8:
                    bd:4c:b2:a0:ab:27:9f:49:38:c6:c5:f4:e8:8d:8b:
                    37:ba:9f:0f:1a:a0:03:74:d8:77:94:a4:dd:36:89:
                    ab:1a:5e:d6:7a:5a:cb:bf:40:04:91:6a:9c:84:f3:
                    81:37:a6:a6:49:91:fe:69:ec:80:a2:5b:b2:04:11:
                    57:b6:e4:68:22:ea:d9:1b:4c:c1:f9:d3:a2:28:b1:
                    b5:e9:b4:4e:08:25:37:64:82:14:1b:d2:dc:75:f8:
                    f4:48:de:b9:f3:35:94:2d:69:b1:3c:44:b1:f7:08:
                    1a:71:41:4c:74:c9:70:c1:7b:09:58:fd:e1:73:6d:
                    3a:70:c8:3a:b9:ee:b4:d0:e7:7d:ef:48:fa:fb:81:
                    ef:e4:fe:39:87:4d:dc:49:c0:15:ec:90:e2:0d:ea:
                    9d:a9:c0:19:40:d6:c7:73:43:6e:95:13:b2:0d:0e:
                    90:c2:bf:2b:d9:2d:9c:85:48:2a:c5:40:9e:37:67:
                    cf:e7:1b:95:c2:26:af:e0:61:a2:a6:51:07:33:15:
                    35:36:74:33:fc:74:f8:46:80:36:6d:39:df:24:b1:
                    a8:0b:05:85:be:62:1c:d0:8e:09:5a:29:0c:48:9d:
                    81:bc:c5:f7:f4:c9:9c:ab:e9:13:6e:11:59:90:ca:
                    96:af:c6:90:18:f7:3e:58:51:e4:bf:d1:1e:20:5c:
                    97:06:d1:cf:61:1b:67:f5:61:00:87:02:90:5a:ce:
                    2d:cb:35:b1:96:6a:d9:fe:47:90:03:b7:5d:c7:3d:
                    48:c0:5e:2a:b9:66:ec:36:b8:ec:dd:0f:74:32:65:
                    50:2c:b7:dc:1a:47:6b:49:33:28:f6:37:3d:d5:0d:
                    7b:30:79:86:dd:d5:d7:c3:8b:55:fa:8c:ac:58:c8:
                    af:94:1c:03:86:8b:06:9e:05:b9:b5:f8:14:18:14:
                    b6:3e:24:95:f8:9b:c4:40:64:f7:a2:83:11:ec:b7:
                    a0:1f:4c:94:ae:33:0f:be:d4:e8:e2:6b:54:bb:71:
                    f2:a6:ef:07:5f:13:35:66:36:b6:30:64:15:d2:60:
                    f0:c4:ce:8b:7d:2b:b1:88:a2:3f:58:b7:50:7d:bb:
                    94:a4:39:7b:df:8c:ec:64:c8:c5:8d:86:54:6f:f1:
                    87:93:51
                Exponent: 65537 (0x10001)
        X509v3 extensions:
            X509v3 Basic Constraints: 
                CA:FALSE
            X509v3 Subject Key Identifier: 
                30:C9:45:D8:D3:C8:8E:E6:41:B8:29:BD:48:DE:BF:CD:9A:A5:81:CE
            X509v3 Authority Key Identifier: 
                keyid:A4:FD:B9:39:1B:81:B3:AA:EB:88:1D:D4:81:A9:B5:11:70:CC:A7:E1

            Authority Information Access: 
                OCSP - URI:http://server.w1.fi:8888/

            X509v3 Extended Key Usage: 
                TLS Web Server Authentication
    Signature Algorithm: sha256WithRSAEncryption
         93:d8:7c:60:5f:be:d0:c2:e4:e1:ca:50:fd:e1:8b:18:85:f2:
         b9:ef:cd:4e:ef:6c:a9:35:3a:9e:b5:6f:f5:f8:e5:05:ab:3d:
         19:0d:12:2e:96:c9:75:fd:f1:aa:e7:0a:a7:a8:2e:e5:c8:71:
         ab:7a:c9:f0:bd:e8:68:9f:ab:62:00:95:5c:1d:56:98:b4:fc:
         fd:3e:54:3c:3d:50:1c:e4:37:7a:9a:51:c4:d9:33:32:91:8e:
         43:cc:40:0b:50:15:99:60:24:32:60:4f:29:31:24:a5:4b:54:
         2d:39:1b:ce:79:2e:e8:4f:a3:4c:93:66:5c:e8:17:39:ce:65:
         5a:e2:0b:f3:a8:c8:9b:87:5e:b5:9a:a0:0b:8b:1b:85:ec:92:
         87:88:e2:21:38:d9:40:e0:47:78:81:85:cc:a2:56:d1:61:86:
         82:4f:04:93:ed:70:f4:0d:d2:1c:4c:a9:1e:47:f0:12:e4:64:
         9d:f2:16:03:8d:b1:56:9b:cb:94:fc:50:0a:30:b8:39:47:59:
         7f:4d:dd:11:a8:3c:d1:54:9d:08:a0:c7:fd:17:46:62:b9:76:
         ba:6d:95:eb:fb:ea:79:cc:ba:a8:0d:34:dd:3f:66:fa:e4:79:
         7b:c7:b9:fb:85:b5:1b:ca:ca:af:b4:30:94:65:46:ee:ba:5d:
         04:75:35:e9
-----BEGIN CERTIFICATE-----
MIIEljCCA36gAwIBAgIJANjT46bL4814MA0GCSqGSIb3DQEBCwUAMEExCzAJBgNV
BAYTAkZJMRAwDgYDVQQHDAdUdXVzdWxhMQ4wDAYDVQQKDAV3MS5maTEQMA4GA1UE
AwwHUm9vdCBDQTAgFw0yMjA0MTYxMDE5MzhaGA8yMDcyMDQwMzEwMTkzOFowNTEL
MAkGA1UEBhMCRkkxDjAMBgNVBAoMBXcxLmZpMRYwFAYDVQQDDA1zZXJ2ZXI3Lncx
LmZpMIICIjANBgkqhkiG9w0BAQEFAAOCAg8AMIICCgKCAgEAvxDC67+9DyFoRCZ4
1pAP3pxneAdvLjThUaY0bh1P8R8at5N6GgE2BNTjNfCbUo3MLYCTaDcACV/hDYo1
dPXuHhZpkxZHqpPKaKc5bbXbVz1FY4k4nj5XOdi9TLKgqyefSTjGxfTojYs3up8P
GqADdNh3lKTdNomrGl7WelrLv0AEkWqchPOBN6amSZH+aeyAoluyBBFXtuRoIurZ
G0zB+dOiKLG16bROCCU3ZIIUG9Lcdfj0SN658zWULWmxPESx9wgacUFMdMlwwXsJ
WP3hc206cMg6ue600Od970j6+4Hv5P45h03cScAV7JDiDeqdqcAZQNbHc0NulROy
DQ6Qwr8r2S2chUgqxUCeN2fP5xuVwiav4GGiplEHMxU1NnQz/HT4RoA2bTnfJLGo
CwWFvmIc0I4JWikMSJ2BvMX39Mmcq+kTbhFZkMqWr8aQGPc+WFHkv9EeIFyXBtHP
YRtn9WEAhwKQWs4tyzWxlmrZ/keQA7ddxz1IwF4quWbsNrjs3Q90MmVQLLfcGkdr
STMo9jc91Q17MHmG3dXXw4tV+oysWMivlBwDhosGngW5tfgUGBS2PiSV+JvEQGT3
ooMR7LegH0yUrjMPvtTo4mtUu3Hypu8HXxM1Zja2MGQV0mDwxM6LfSuxiKI/WLdQ
fbuUpDl734zsZMjFjYZUb/GHk1ECAwEAAaOBmjCBlzAJBgNVHRMEAjAAMB0GA1Ud
DgQWBBQwyUXY08iO5kG4Kb1I3r/NmqWBzjAfBgNVHSMEGDAWgBSk/bk5G4GzquuI
HdSBqbURcMyn4TA1BggrBgEFBQcBAQQpMCcwJQYIKwYBBQUHMAGGGWh0dHA6Ly9z
ZXJ2ZXIudzEuZmk6ODg4OC8wEwYDVR0lBAwwCgYIKwYBBQUHAwEwDQYJKoZIhvcN
AQELBQADggEBAJPYfGBfvtDC5OHKUP3hixiF8rnvzU7vbKk1Op61b/X45QWrPRkN
Ei6WyXX98arnCqeoLuXIcat6yfC96Gifq2IAlVwdVpi0/P0+VDw9UBzkN3qaUcTZ
MzKRjkPMQAtQFZlgJDJgTykxJKVLVC05G855LuhPo0yTZlzoFznOZVriC/OoyJuH
XrWaoAuLG4XskoeI4iE42UDgR3iBhcyiVtFhhoJPBJPtcPQN0hxMqR5H8BLkZJ3y
FgONsVaby5T8UAowuDlHWX9N3RGoPNFUnQigx/0XRmK5drptlev76nnMuqgNNN0/
ZvrkeXvHufuFtRvKyq+0MJRlRu66XQR1Nek=
-----END CERTIFICATE-----
