Certificate:
    Data:
        Version: 3 (0x2)
        Serial Number:
            d8:d3:e3:a6:cb:e3:cd:7b
        Signature Algorithm: sha256WithRSAEncryption
        Issuer: C=FI, L=Tuusula, O=w1.fi, CN=Root CA
        Validity
            Not Before: Apr 16 10:19:38 2022 GMT
            Not After : Apr 16 10:19:38 2023 GMT
        Subject: C=FI, O=w1.fi, CN=Test User
        Subject Public Key Info:
            Public Key Algorithm: rsaEncryption
                RSA Public-Key: (2048 bit)
                Modulus:
                    00:bc:24:08:d9:07:6d:19:0e:94:5c:6b:d9:8a:84:
                    1b:03:22:e2:1a:06:42:d3:0b:60:8d:5f:31:04:06:
                    fa:a2:40:6a:0c:24:29:58:cd:83:bf:3a:9d:7f:37:
                    0d:4d:27:5d:d5:57:57:1c:f3:be:75:3f:3a:4c:44:
                    6f:02:2f:5b:8b:2c:b0:5c:47:29:19:31:08:d1:28:
                    f5:1e:9c:5b:9c:b7:e7:6b:40:35:10:3e:7f:66:67:
                    16:a1:4e:68:8a:71:cc:32:58:e3:08:87:a2:2a:07:
                    2d:7f:73:f6:43:e5:7f:f4:f6:74:ae:27:e8:d2:5c:
                    ae:9b:82:d9:a5:2a:72:76:84:2f:e3:62:aa:41:1e:
                    de:33:b7:64:f8:79:6f:fa:09:b5:bc:b0:8c:cd:34:
                    82:2d:c4:10:55:89:ea:6c:38:92:fe:61:d6:64:84:
                    04:d4:0a:37:32:37:8d:c3:55:d1:fc:ab:b8:55:06:
                    a9:00:4f:31:e2:42:f1:e7:b4:2e:9c:45:0d:dc:a9:
                    f9:ad:b2:77:c1:f0:b1:c3:a2:5a:26:90:bd:19:2f:
                    46:1d:a5:21:3d:f0:35:62:94:c8:cf:33:3f:d8:a2:
                    5d:df:cc:58:00:08:8d:ed:b1:04:c5:2b:3f:1a:15:
                    f6:92:08:d4:f1:42:cd:6c:db:f2:ff:e0:6e:69:84:
                    d8:8b
                Exponent: 65537 (0x10001)
        X509v3 extensions:
            X509v3 Basic Constraints: 
                CA:FALSE
            X509v3 Subject Key Identifier: 
                FB:85:00:A8:DF:D6:0C:0E:A7:E3:39:61:D9:BE:CE:2A:EF:6D:28:D8
            X509v3 Authority Key Identifier: 
                keyid:A4:FD:B9:39:1B:81:B3:AA:EB:88:1D:D4:81:A9:B5:11:70:CC:A7:E1

            Authority Information Access: 
                OCSP - URI:http://server.w1.fi:8888/

            X509v3 Extended Key Usage: 
                TLS Web Client Authentication
    Signature Algorithm: sha256WithRSAEncryption
         34:ee:2e:8f:5e:50:60:f1:45:2e:db:09:07:8c:35:23:24:ee:
         34:8b:d9:16:74:ec:f8:43:14:67:26:1e:e3:c6:11:6b:9e:d5:
         93:a5:50:e0:d6:d4:c9:7c:6b:07:c3:21:5b:2f:78:fe:b5:22:
         3e:69:12:9b:83:3c:93:76:38:62:1b:0e:4b:b9:63:23:97:ac:
         a1:d1:80:07:32:d6:51:10:d0:44:78:c8:a7:8a:65:be:a1:8f:
         50:76:80:92:3e:a1:e7:6d:3b:96:0f:a7:2c:24:8d:f2:58:bd:
         6f:15:e2:ec:93:54:22:74:75:b7:b1:6c:29:d1:96:ae:e5:31:
         86:d8:cd:1b:06:84:4c:ce:ab:09:e7:93:41:25:e8:4d:44:29:
         c8:63:25:2a:6c:98:99:fd:97:1f:08:7e:ba:b0:1d:2f:90:d5:
         9b:09:62:88:b2:88:ec:07:da:be:0f:c8:5e:42:53:8d:be:39:
         fa:21:9f:cb:84:29:38:ab:82:65:1f:3e:97:55:48:04:d4:f8:
         eb:27:e1:55:d4:77:62:b4:ae:a1:f7:19:56:e8:32:59:9a:ca:
         98:63:43:9e:b1:71:55:33:f8:9a:c5:e0:c4:6a:09:98:7d:3b:
         9d:f6:2d:f3:4b:e2:2c:37:76:b6:ca:aa:bd:bd:c5:4a:a0:0c:
         57:36:d1:04
-----BEGIN CERTIFICATE-----
MIIDkDCCAnigAwIBAgIJANjT46bL4817MA0GCSqGSIb3DQEBCwUAMEExCzAJBgNV
BAYTAkZJMRAwDgYDVQQHDAdUdXVzdWxhMQ4wDAYDVQQKDAV3MS5maTEQMA4GA1UE
AwwHUm9vdCBDQTAeFw0yMjA0MTYxMDE5MzhaFw0yMzA0MTYxMDE5MzhaMDExCzAJ
BgNVBAYTAkZJMQ4wDAYDVQQKDAV3MS5maTESMBAGA1UEAwwJVGVzdCBVc2VyMIIB
IjANBgkqhkiG9w0BAQEFAAOCAQ8AMIIBCgKCAQEAvCQI2QdtGQ6UXGvZioQbAyLi
GgZC0wtgjV8xBAb6okBqDCQpWM2DvzqdfzcNTSdd1VdXHPO+dT86TERvAi9biyyw
XEcpGTEI0Sj1HpxbnLfna0A1ED5/ZmcWoU5oinHMMljjCIeiKgctf3P2Q+V/9PZ0
rifo0lyum4LZpSpydoQv42KqQR7eM7dk+Hlv+gm1vLCMzTSCLcQQVYnqbDiS/mHW
ZIQE1Ao3MjeNw1XR/Ku4VQapAE8x4kLx57QunEUN3Kn5rbJ3wfCxw6JaJpC9GS9G
HaUhPfA1YpTIzzM/2KJd38xYAAiN7bEExSs/GhX2kgjU8ULNbNvy/+BuaYTYiwID
AQABo4GaMIGXMAkGA1UdEwQCMAAwHQYDVR0OBBYEFPuFAKjf1gwOp+M5Ydm+zirv
bSjYMB8GA1UdIwQYMBaAFKT9uTkbgbOq64gd1IGptRFwzKfhMDUGCCsGAQUFBwEB
BCkwJzAlBggrBgEFBQcwAYYZaHR0cDovL3NlcnZlci53MS5maTo4ODg4LzATBgNV
HSUEDDAKBggrBgEFBQcDAjANBgkqhkiG9w0BAQsFAAOCAQEANO4uj15QYPFFLtsJ
B4w1IyTuNIvZFnTs+EMUZyYe48YRa57Vk6VQ4NbUyXxrB8MhWy94/rUiPmkSm4M8
k3Y4YhsOS7ljI5esodGABzLWURDQRHjIp4plvqGPUHaAkj6h5207lg+nLCSN8li9
bxXi7JNUInR1t7FsKdGWruUxhtjNGwaETM6rCeeTQSXoTUQpyGMlKmyYmf2XHwh+
urAdL5DVmwliiLKI7Afavg/IXkJTjb45+iGfy4QpOKuCZR8+l1VIBNT46yfhVdR3
YrSuofcZVugyWZrKmGNDnrFxVTP4msXgxGoJmH07nfYt80viLDd2tsqqvb3FSqAM
VzbRBA==
-----END CERTIFICATE-----
